Certificate:
    Data:
        Version: 3 (0x2)
        Serial Number: 2 (0x2)
        Signature Algorithm: sha1WithRSAEncryption
        Issuer: C=GE, ST=Germany, L=Berlin, O=BitJoe.com GmbH, OU=BitJoe.com Tec, CN=www.alpha64.info/emailAddress=bigfish82@gmail.com
        Validity
            Not Before: Aug 19 04:53:22 2006 GMT
            Not After : Aug 19 04:53:22 2007 GMT
        Subject: C=GE, ST=Germany, L=Berlin, O=BitJoe.com GmbH, OU=BitJoe.com Tec, CN=www.alpha64.info/emailAddress=bigfish82@gmail.com
        Subject Public Key Info:
            Public Key Algorithm: rsaEncryption
            RSA Public Key: (4096 bit)
                Modulus (4096 bit):
                    00:c4:26:ca:ee:ae:f3:3c:86:ed:3d:e4:08:6d:78:
                    fc:1a:83:ea:f7:b4:ba:29:6a:c2:ae:86:f1:f7:a0:
                    e6:77:37:e2:31:a1:09:df:f5:b6:b2:dc:cc:0f:85:
                    a0:58:f5:5e:c3:f7:c2:88:bd:0a:b8:dd:50:56:af:
                    89:84:df:f7:b3:bc:72:55:74:53:2c:9c:c1:4b:c8:
                    cc:95:47:1f:2f:02:41:62:64:42:cc:da:dd:52:4a:
                    ad:fe:86:b1:fa:ef:51:0c:67:b6:30:0b:fd:14:9a:
                    d5:76:e1:5a:ac:63:5f:74:92:5c:db:3d:24:89:97:
                    dc:18:e0:26:19:27:37:a8:37:56:0f:d7:4a:e8:dd:
                    27:06:a8:bf:7b:8a:62:b4:fe:a1:fb:e1:2a:69:58:
                    c9:97:3e:0f:90:c4:c8:6f:2f:d2:72:ac:4a:13:06:
                    60:37:a8:0d:da:4a:0e:ee:9e:c1:dc:0e:72:90:e0:
                    1f:8a:fc:9c:57:3c:93:29:d7:41:65:db:b1:1e:0e:
                    87:eb:1f:15:1f:f7:06:0f:da:51:96:f7:41:a8:e9:
                    e9:c9:8e:ec:c5:8d:dc:87:8c:db:8c:7c:1c:c2:38:
                    a0:c4:78:13:55:d5:3e:27:98:ba:f5:a8:c9:ff:f1:
                    d4:56:7c:a8:92:8d:ae:06:2b:6f:43:2a:7f:84:99:
                    6c:c5:d7:a0:3a:98:bf:bc:18:bc:42:b8:66:20:f7:
                    d3:f7:20:eb:56:08:fe:37:ba:5d:ba:4f:07:ad:d3:
                    39:65:03:06:03:2f:86:cf:4f:8a:bb:bd:c6:f6:49:
                    cf:4d:c9:2c:b7:a9:4b:22:69:e2:76:9d:4a:72:b2:
                    9c:2b:63:6a:df:3c:78:b1:04:bf:65:10:fd:4f:e9:
                    f3:40:40:32:f1:b2:08:3b:c8:37:88:7c:cc:ba:6c:
                    4d:2b:92:6c:e4:b6:80:ad:f9:b7:96:c6:4a:bd:aa:
                    18:67:8e:11:c3:d8:4b:76:76:8d:7e:8b:32:b5:05:
                    1e:36:2c:9c:8b:ad:ea:51:6c:f4:7a:cc:48:ca:f2:
                    3e:69:c3:91:21:48:61:10:42:f0:8f:df:b7:03:cb:
                    80:b4:6d:31:71:14:ca:1f:62:4c:b7:a4:ac:1c:da:
                    23:5c:6c:c6:e4:89:a5:8a:17:d8:f7:6e:28:79:b5:
                    ad:1c:86:29:de:c2:f5:3a:48:1f:51:d9:52:cc:a3:
                    25:17:6a:64:ee:1d:d8:9a:87:69:7a:8c:b6:23:0d:
                    e4:cf:67:e7:a6:03:5b:b8:25:aa:0c:88:d3:ce:ff:
                    c2:8b:cd:d9:98:72:cb:29:88:86:8c:e5:0b:69:08:
                    ef:94:c8:0b:4f:d2:52:5f:2f:00:d7:d2:73:52:9f:
                    98:7c:85
                Exponent: 65537 (0x10001)
        X509v3 extensions:
            X509v3 Basic Constraints: 
                CA:FALSE
            Netscape Comment: 
                OpenSSL Generated Certificate
            X509v3 Subject Key Identifier: 
                BF:8D:57:EC:F4:B7:7B:0B:22:F9:0E:B6:91:B9:24:0E:41:94:0D:22
            X509v3 Authority Key Identifier: 
                keyid:3E:54:CD:5C:9A:A6:29:7C:52:60:67:D1:D1:A5:EA:8F:51:C4:ED:BF

    Signature Algorithm: sha1WithRSAEncryption
        3f:7f:92:59:bb:1d:5c:ff:00:22:d3:db:c5:af:9b:95:a0:11:
        5e:47:3d:7e:38:4d:cc:53:41:5f:19:5d:9a:4f:a8:a8:92:30:
        56:70:d6:0c:8d:19:01:ba:6a:cf:88:ed:61:ae:19:4b:71:ea:
        2f:9c:26:b5:eb:ef:d7:2e:78:ae:31:c0:6b:c3:7f:55:9b:ae:
        4a:e9:6e:55:d4:bf:2c:35:64:71:4b:42:07:b5:59:4f:7b:d4:
        d7:f0:f9:12:18:5c:d7:ac:5b:34:c3:90:f2:76:f0:96:5a:0f:
        83:2f:3d:39:d3:b3:bf:c7:1c:00:73:16:4e:22:03:fd:14:08:
        bc:65:56:32:07:42:3a:97:0d:e1:bb:32:07:e1:e2:df:a3:d6:
        2b:b2:5c:13:ff:1e:b0:e0:14:1e:85:37:e8:0b:26:68:8b:ea:
        b0:11:bf:ea:63:97:8f:7c:5a:b5:10:e0:c0:22:3d:54:1f:75:
        51:b4:ec:d1:8d:ec:62:6a:91:9d:24:c4:c7:a3:d5:c7:08:82:
        d6:66:d1:d9:af:4f:49:d9:61:3d:f8:bb:fb:cc:f6:fe:9f:3f:
        e6:bd:30:e4:e2:bb:b3:ab:8b:1b:44:54:a9:0d:92:04:1b:46:
        c1:15:59:5b:ec:67:f9:dc:a4:49:92:5c:03:e1:6b:ef:b7:cd:
        dc:18:30:90:2b:84:3f:96:5f:1e:fc:f4:0d:f0:18:b4:8d:1a:
        f7:f4:c2:24:80:f4:7c:10:03:8a:9f:72:6a:5d:93:dc:dc:67:
        bb:fa:c6:40:81:f0:d5:60:73:b1:37:39:98:cc:f1:b0:65:73:
        3e:f3:5f:14:48:9a:5a:da:f6:1f:51:fc:03:2b:bc:da:18:e1:
        5b:8e:d2:c8:ee:96:04:50:39:05:6b:99:60:ca:9b:7f:8d:ac:
        4d:40:34:53:4c:3f:78:2e:a1:61:76:96:46:b2:25:c4:66:4d:
        c9:6a:fe:0a:88:e4:21:c3:fd:2c:bb:18:e3:ca:0b:5b:38:c6:
        84:c9:5b:a5:b7:e1:23:72:bd:a9:8c:d6:5a:59:64:51:e4:76:
        e2:5c:b3:7d:59:c9:21:63:53:6d:88:16:62:43:21:9e:29:25:
        71:7e:e0:54:79:da:cf:3d:2e:25:71:70:d4:70:81:a6:38:00:
        43:df:84:8c:1f:5e:e7:7e:87:d3:6a:c6:bd:88:38:6b:01:6c:
        7e:ab:9a:b8:c9:f1:be:5e:58:12:ef:1f:d2:d8:ee:53:eb:5b:
        2f:ff:39:91:1d:70:6f:ca:c0:39:57:8f:25:95:12:7b:c3:2b:
        a8:d6:08:1e:bf:25:a3:a8:d0:a9:c5:89:5f:d3:7f:07:88:19:
        77:c8:29:9d:38:e5:7d:6e
-----BEGIN CERTIFICATE-----
MIIGPDCCBCSgAwIBAgIBAjANBgkqhkiG9w0BAQUFADCBojELMAkGA1UEBhMCR0Ux
EDAOBgNVBAgTB0dlcm1hbnkxDzANBgNVBAcTBkJlcmxpbjEYMBYGA1UEChMPQml0
Sm9lLmNvbSBHbWJIMRcwFQYDVQQLEw5CaXRKb2UuY29tIFRlYzEZMBcGA1UEAxMQ
d3d3LmFscGhhNjQuaW5mbzEiMCAGCSqGSIb3DQEJARYTYmlnZmlzaDgyQGdtYWls
LmNvbTAeFw0wNjA4MTkwNDUzMjJaFw0wNzA4MTkwNDUzMjJaMIGiMQswCQYDVQQG
EwJHRTEQMA4GA1UECBMHR2VybWFueTEPMA0GA1UEBxMGQmVybGluMRgwFgYDVQQK
Ew9CaXRKb2UuY29tIEdtYkgxFzAVBgNVBAsTDkJpdEpvZS5jb20gVGVjMRkwFwYD
VQQDExB3d3cuYWxwaGE2NC5pbmZvMSIwIAYJKoZIhvcNAQkBFhNiaWdmaXNoODJA
Z21haWwuY29tMIICIjANBgkqhkiG9w0BAQEFAAOCAg8AMIICCgKCAgEAxCbK7q7z
PIbtPeQIbXj8GoPq97S6KWrCrobx96DmdzfiMaEJ3/W2stzMD4WgWPVew/fCiL0K
uN1QVq+JhN/3s7xyVXRTLJzBS8jMlUcfLwJBYmRCzNrdUkqt/oax+u9RDGe2MAv9
FJrVduFarGNfdJJc2z0kiZfcGOAmGSc3qDdWD9dK6N0nBqi/e4pitP6h++EqaVjJ
lz4PkMTIby/ScqxKEwZgN6gN2koO7p7B3A5ykOAfivycVzyTKddBZduxHg6H6x8V
H/cGD9pRlvdBqOnpyY7sxY3ch4zbjHwcwjigxHgTVdU+J5i69ajJ//HUVnyoko2u
BitvQyp/hJlsxdegOpi/vBi8QrhmIPfT9yDrVgj+N7pduk8HrdM5ZQMGAy+Gz0+K
u73G9knPTckst6lLImnidp1KcrKcK2Nq3zx4sQS/ZRD9T+nzQEAy8bIIO8g3iHzM
umxNK5Js5LaArfm3lsZKvaoYZ44Rw9hLdnaNfosytQUeNiyci63qUWz0esxIyvI+
acORIUhhEELwj9+3A8uAtG0xcRTKH2JMt6SsHNojXGzG5ImlihfY924oebWtHIYp
3sL1OkgfUdlSzKMlF2pk7h3Ymodpeoy2Iw3kz2fnpgNbuCWqDIjTzv/Ci83ZmHLL
KYiGjOULaQjvlMgLT9JSXy8A19JzUp+YfIUCAwEAAaN7MHkwCQYDVR0TBAIwADAs
BglghkgBhvhCAQ0EHxYdT3BlblNTTCBHZW5lcmF0ZWQgQ2VydGlmaWNhdGUwHQYD
VR0OBBYEFL+NV+z0t3sLIvkOtpG5JA5BlA0iMB8GA1UdIwQYMBaAFD5UzVyapil8
UmBn0dGl6o9RxO2/MA0GCSqGSIb3DQEBBQUAA4ICAQA/f5JZux1c/wAi09vFr5uV
oBFeRz1+OE3MU0FfGV2aT6iokjBWcNYMjRkBumrPiO1hrhlLceovnCa16+/XLniu
McBrw39Vm65K6W5V1L8sNWRxS0IHtVlPe9TX8PkSGFzXrFs0w5DydvCWWg+DLz05
07O/xxwAcxZOIgP9FAi8ZVYyB0I6lw3huzIH4eLfo9YrslwT/x6w4BQehTfoCyZo
i+qwEb/qY5ePfFq1EODAIj1UH3VRtOzRjexiapGdJMTHo9XHCILWZtHZr09J2WE9
+Lv7zPb+nz/mvTDk4ruzq4sbRFSpDZIEG0bBFVlb7Gf53KRJklwD4Wvvt83cGDCQ
K4Q/ll8e/PQN8Bi0jRr39MIkgPR8EAOKn3JqXZPc3Ge7+sZAgfDVYHOxNzmYzPGw
ZXM+818USJpa2vYfUfwDK7zaGOFbjtLI7pYEUDkFa5lgypt/jaxNQDRTTD94LqFh
dpZGsiXEZk3Jav4KiOQhw/0suxjjygtbOMaEyVult+Ejcr2pjNZaWWRR5HbiXLN9
WckhY1NtiBZiQyGeKSVxfuBUedrPPS4lcXDUcIGmOABD34SMH17nfofTasa9iDhr
AWx+q5q4yfG+XlgS7x/S2O5T61sv/zmRHXBvysA5V48llRJ7wyuo1ggevyWjqNCp
xYlf038HiBl3yCmdOOV9bg==
-----END CERTIFICATE-----
