Certificate:
    Data:
        Version: 3 (0x2)
        Serial Number: 1 (0x1)
        Signature Algorithm: sha1WithRSAEncryption
        Issuer: C=GE, ST=Germany, L=Berlin, O=BitJoe.com GmbH, OU=BitJoe.com Tec, CN=www.alpha64.info/emailAddress=bigfish82@gmail.com
        Validity
            Not Before: Aug 19 04:51:23 2006 GMT
            Not After : Aug 19 04:51:23 2007 GMT
        Subject: C=GE, ST=Germany, L=Berlin, O=BitJoe.com GmbH, OU=BitJoe.com Tec, CN=www.alpha64.info/emailAddress=bigfish82@gmail.com
        Subject Public Key Info:
            Public Key Algorithm: rsaEncryption
            RSA Public Key: (4096 bit)
                Modulus (4096 bit):
                    00:c4:26:ca:ee:ae:f3:3c:86:ed:3d:e4:08:6d:78:
                    fc:1a:83:ea:f7:b4:ba:29:6a:c2:ae:86:f1:f7:a0:
                    e6:77:37:e2:31:a1:09:df:f5:b6:b2:dc:cc:0f:85:
                    a0:58:f5:5e:c3:f7:c2:88:bd:0a:b8:dd:50:56:af:
                    89:84:df:f7:b3:bc:72:55:74:53:2c:9c:c1:4b:c8:
                    cc:95:47:1f:2f:02:41:62:64:42:cc:da:dd:52:4a:
                    ad:fe:86:b1:fa:ef:51:0c:67:b6:30:0b:fd:14:9a:
                    d5:76:e1:5a:ac:63:5f:74:92:5c:db:3d:24:89:97:
                    dc:18:e0:26:19:27:37:a8:37:56:0f:d7:4a:e8:dd:
                    27:06:a8:bf:7b:8a:62:b4:fe:a1:fb:e1:2a:69:58:
                    c9:97:3e:0f:90:c4:c8:6f:2f:d2:72:ac:4a:13:06:
                    60:37:a8:0d:da:4a:0e:ee:9e:c1:dc:0e:72:90:e0:
                    1f:8a:fc:9c:57:3c:93:29:d7:41:65:db:b1:1e:0e:
                    87:eb:1f:15:1f:f7:06:0f:da:51:96:f7:41:a8:e9:
                    e9:c9:8e:ec:c5:8d:dc:87:8c:db:8c:7c:1c:c2:38:
                    a0:c4:78:13:55:d5:3e:27:98:ba:f5:a8:c9:ff:f1:
                    d4:56:7c:a8:92:8d:ae:06:2b:6f:43:2a:7f:84:99:
                    6c:c5:d7:a0:3a:98:bf:bc:18:bc:42:b8:66:20:f7:
                    d3:f7:20:eb:56:08:fe:37:ba:5d:ba:4f:07:ad:d3:
                    39:65:03:06:03:2f:86:cf:4f:8a:bb:bd:c6:f6:49:
                    cf:4d:c9:2c:b7:a9:4b:22:69:e2:76:9d:4a:72:b2:
                    9c:2b:63:6a:df:3c:78:b1:04:bf:65:10:fd:4f:e9:
                    f3:40:40:32:f1:b2:08:3b:c8:37:88:7c:cc:ba:6c:
                    4d:2b:92:6c:e4:b6:80:ad:f9:b7:96:c6:4a:bd:aa:
                    18:67:8e:11:c3:d8:4b:76:76:8d:7e:8b:32:b5:05:
                    1e:36:2c:9c:8b:ad:ea:51:6c:f4:7a:cc:48:ca:f2:
                    3e:69:c3:91:21:48:61:10:42:f0:8f:df:b7:03:cb:
                    80:b4:6d:31:71:14:ca:1f:62:4c:b7:a4:ac:1c:da:
                    23:5c:6c:c6:e4:89:a5:8a:17:d8:f7:6e:28:79:b5:
                    ad:1c:86:29:de:c2:f5:3a:48:1f:51:d9:52:cc:a3:
                    25:17:6a:64:ee:1d:d8:9a:87:69:7a:8c:b6:23:0d:
                    e4:cf:67:e7:a6:03:5b:b8:25:aa:0c:88:d3:ce:ff:
                    c2:8b:cd:d9:98:72:cb:29:88:86:8c:e5:0b:69:08:
                    ef:94:c8:0b:4f:d2:52:5f:2f:00:d7:d2:73:52:9f:
                    98:7c:85
                Exponent: 65537 (0x10001)
        X509v3 extensions:
            X509v3 Basic Constraints: 
                CA:FALSE
            Netscape Comment: 
                OpenSSL Generated Certificate
            X509v3 Subject Key Identifier: 
                BF:8D:57:EC:F4:B7:7B:0B:22:F9:0E:B6:91:B9:24:0E:41:94:0D:22
            X509v3 Authority Key Identifier: 
                keyid:3E:54:CD:5C:9A:A6:29:7C:52:60:67:D1:D1:A5:EA:8F:51:C4:ED:BF

    Signature Algorithm: sha1WithRSAEncryption
        33:61:b5:f8:b6:14:dc:19:57:7e:c5:a6:52:cb:46:ea:a7:36:
        73:84:26:88:ca:4f:79:53:0f:aa:0c:d1:d0:e4:81:f8:ba:3a:
        f2:98:43:c0:17:56:c7:aa:ea:1c:71:9d:de:35:7a:0b:31:15:
        2b:85:f9:73:68:bb:43:40:20:25:4c:e4:01:53:9f:65:f4:f7:
        60:38:41:7b:21:84:98:d0:0e:ac:a7:0d:d3:4e:10:c5:e2:0b:
        d0:95:ef:b4:3c:66:be:1b:2e:69:7f:43:4e:be:1b:c4:c8:1b:
        2b:70:8b:d3:2a:a9:78:2f:04:ea:2e:ea:13:84:ad:3a:40:32:
        cb:67:b4:f5:29:f5:04:3e:72:b7:05:90:2d:28:82:63:82:ed:
        2d:aa:e5:f0:1d:4e:29:f0:53:f9:5a:29:c9:da:b8:09:dc:b3:
        cf:2b:e4:75:09:89:7f:de:e8:e9:30:a5:5d:23:9a:ba:bc:8e:
        ea:f4:d1:80:b4:d6:ea:a4:49:10:8c:b4:5d:15:81:74:8b:a0:
        77:5e:01:5e:80:96:1c:ac:98:3c:51:42:80:b6:24:fe:ed:59:
        06:93:2e:db:1c:99:5c:bb:a3:cd:b2:a8:0e:da:a1:5e:99:da:
        64:07:f9:59:9c:71:65:da:da:95:60:2b:8e:f0:3b:21:a0:ed:
        a3:51:4c:dc:fb:d5:d4:5c:b7:0a:d8:71:a1:ea:a2:55:66:de:
        98:17:2d:87:9c:20:e6:c4:1f:9f:fc:44:b4:20:a9:9e:d0:64:
        fd:c8:e1:cc:60:b3:ff:88:6c:f1:1e:70:68:45:54:97:d5:49:
        26:da:bd:bc:17:a4:57:61:84:da:ee:2f:7f:ea:68:3c:21:d2:
        61:29:a5:33:06:3b:71:8c:c8:d7:e6:92:1c:9a:a7:2a:a7:92:
        f6:d2:28:76:1a:b2:fc:4f:3e:ab:be:e3:65:72:1d:61:26:d7:
        ad:e2:9c:c8:dd:9d:f3:06:e8:2e:df:9a:18:f2:4d:f5:ad:4a:
        87:16:59:60:1f:fe:4c:76:20:af:8e:d7:b3:52:79:86:58:ae:
        ba:97:73:f5:62:bd:1d:cd:4e:26:c2:a8:6a:88:9e:91:7c:dd:
        a7:29:fd:41:a3:d1:f2:e7:c7:40:6c:73:fe:e7:1e:fd:b7:f3:
        e8:3c:f1:51:08:1d:37:c5:d7:66:c7:31:3d:ea:c4:3a:3d:c9:
        ef:ae:70:2c:5e:38:9c:96:55:a9:68:16:25:4c:3e:82:39:bd:
        1a:0c:39:d7:28:e8:46:78:19:31:43:7a:00:96:d6:de:7e:9e:
        71:ac:8c:47:58:03:32:cd:27:9e:a1:9d:83:4b:29:58:55:bc:
        07:e1:e7:af:37:0d:f9:50
-----BEGIN CERTIFICATE-----
MIIGPDCCBCSgAwIBAgIBATANBgkqhkiG9w0BAQUFADCBojELMAkGA1UEBhMCR0Ux
EDAOBgNVBAgTB0dlcm1hbnkxDzANBgNVBAcTBkJlcmxpbjEYMBYGA1UEChMPQml0
Sm9lLmNvbSBHbWJIMRcwFQYDVQQLEw5CaXRKb2UuY29tIFRlYzEZMBcGA1UEAxMQ
d3d3LmFscGhhNjQuaW5mbzEiMCAGCSqGSIb3DQEJARYTYmlnZmlzaDgyQGdtYWls
LmNvbTAeFw0wNjA4MTkwNDUxMjNaFw0wNzA4MTkwNDUxMjNaMIGiMQswCQYDVQQG
EwJHRTEQMA4GA1UECBMHR2VybWFueTEPMA0GA1UEBxMGQmVybGluMRgwFgYDVQQK
Ew9CaXRKb2UuY29tIEdtYkgxFzAVBgNVBAsTDkJpdEpvZS5jb20gVGVjMRkwFwYD
VQQDExB3d3cuYWxwaGE2NC5pbmZvMSIwIAYJKoZIhvcNAQkBFhNiaWdmaXNoODJA
Z21haWwuY29tMIICIjANBgkqhkiG9w0BAQEFAAOCAg8AMIICCgKCAgEAxCbK7q7z
PIbtPeQIbXj8GoPq97S6KWrCrobx96DmdzfiMaEJ3/W2stzMD4WgWPVew/fCiL0K
uN1QVq+JhN/3s7xyVXRTLJzBS8jMlUcfLwJBYmRCzNrdUkqt/oax+u9RDGe2MAv9
FJrVduFarGNfdJJc2z0kiZfcGOAmGSc3qDdWD9dK6N0nBqi/e4pitP6h++EqaVjJ
lz4PkMTIby/ScqxKEwZgN6gN2koO7p7B3A5ykOAfivycVzyTKddBZduxHg6H6x8V
H/cGD9pRlvdBqOnpyY7sxY3ch4zbjHwcwjigxHgTVdU+J5i69ajJ//HUVnyoko2u
BitvQyp/hJlsxdegOpi/vBi8QrhmIPfT9yDrVgj+N7pduk8HrdM5ZQMGAy+Gz0+K
u73G9knPTckst6lLImnidp1KcrKcK2Nq3zx4sQS/ZRD9T+nzQEAy8bIIO8g3iHzM
umxNK5Js5LaArfm3lsZKvaoYZ44Rw9hLdnaNfosytQUeNiyci63qUWz0esxIyvI+
acORIUhhEELwj9+3A8uAtG0xcRTKH2JMt6SsHNojXGzG5ImlihfY924oebWtHIYp
3sL1OkgfUdlSzKMlF2pk7h3Ymodpeoy2Iw3kz2fnpgNbuCWqDIjTzv/Ci83ZmHLL
KYiGjOULaQjvlMgLT9JSXy8A19JzUp+YfIUCAwEAAaN7MHkwCQYDVR0TBAIwADAs
BglghkgBhvhCAQ0EHxYdT3BlblNTTCBHZW5lcmF0ZWQgQ2VydGlmaWNhdGUwHQYD
VR0OBBYEFL+NV+z0t3sLIvkOtpG5JA5BlA0iMB8GA1UdIwQYMBaAFD5UzVyapil8
UmBn0dGl6o9RxO2/MA0GCSqGSIb3DQEBBQUAA4ICAQAzYbX4thTcGVd+xaZSy0bq
pzZzhCaIyk95Uw+qDNHQ5IH4ujrymEPAF1bHquoccZ3eNXoLMRUrhflzaLtDQCAl
TOQBU59l9PdgOEF7IYSY0A6spw3TThDF4gvQle+0PGa+Gy5pf0NOvhvEyBsrcIvT
Kql4LwTqLuoThK06QDLLZ7T1KfUEPnK3BZAtKIJjgu0tquXwHU4p8FP5WinJ2rgJ
3LPPK+R1CYl/3ujpMKVdI5q6vI7q9NGAtNbqpEkQjLRdFYF0i6B3XgFegJYcrJg8
UUKAtiT+7VkGky7bHJlcu6PNsqgO2qFemdpkB/lZnHFl2tqVYCuO8DshoO2jUUzc
+9XUXLcK2HGh6qJVZt6YFy2HnCDmxB+f/ES0IKme0GT9yOHMYLP/iGzxHnBoRVSX
1Ukm2r28F6RXYYTa7i9/6mg8IdJhKaUzBjtxjMjX5pIcmqcqp5L20ih2GrL8Tz6r
vuNlch1hJtet4pzI3Z3zBugu35oY8k31rUqHFllgH/5MdiCvjtezUnmGWK66l3P1
Yr0dzU4mwqhqiJ6RfN2nKf1Bo9Hy58dAbHP+5x79t/PoPPFRCB03xddmxzE96sQ6
PcnvrnAsXjicllWpaBYlTD6COb0aDDnXKOhGeBkxQ3oAltbefp5xrIxHWAMyzSee
oZ2DSylYVbwH4eevNw35UA==
-----END CERTIFICATE-----
